target datalayout = "e-m:e-p270:32:32-p271:32:32-p272:64:64-i64:64-i128:128-f80:128-n8:16:32:64-S128"
target triple = "x86_64-unknown-linux-gnu"

%"class.absl::debian2::string_view" = type { ptr, i64 }
%"class.re2::Regexp::ParseState" = type { i32, %"class.absl::debian2::string_view", ptr, ptr, i32, i32 }
%"class.re2::Regexp" = type { i8, i8, i16, i16, i16, %union.anon, ptr, %union.anon.0 }
%union.anon = type { ptr }
%union.anon.0 = type { %struct.anon.1 }
%struct.anon.1 = type { i32, ptr }

; Function Attrs: mustprogress nounwind uwtable
define noundef zeroext i1 @_ZN3re26Regexp10ParseState8IsMarkerENS_8RegexpOpE(ptr noundef nonnull align 8 dereferenceable(48) %this, i32 noundef %op) #0 align 2 {
entry:
  %this.addr = alloca ptr, align 8
  %op.addr = alloca i32, align 4
  store ptr %this, ptr %this.addr, align 8
  store i32 %op, ptr %op.addr, align 4
  %0 = load i32, ptr %op.addr, align 4
  %cmp = icmp sge i32 %0, 22
  ret i1 %cmp
}

; Function Attrs: mustprogress nounwind uwtable
define linkonce_odr noundef i32 @_ZN3re26Regexp2opEv(ptr noundef nonnull align 8 dereferenceable(40) %this) #0 comdat align 2 {
entry:
  %this.addr = alloca ptr, align 8
  store ptr %this, ptr %this.addr, align 8
  %this1 = load ptr, ptr %this.addr, align 8
  %op_ = getelementptr inbounds %"class.re2::Regexp", ptr %this1, i32 0, i32 0
  %0 = load i8, ptr %op_, align 8
  %conv = zext i8 %0 to i32
  ret i32 %conv
}

; Function Attrs: mustprogress uwtable
define void @_ZN3re26Regexp10ParseState15DoConcatenationEv(ptr noundef nonnull align 8 dereferenceable(48) %this) #1 align 2 personality ptr @__gxx_personality_v0 {
entry:
  %this.addr = alloca ptr, align 8
  %r1 = alloca ptr, align 8
  %re = alloca ptr, align 8
  %exn.slot = alloca ptr, align 8
  %ehselector.slot = alloca i32, align 4
  store ptr %this, ptr %this.addr, align 8
  %this1 = load ptr, ptr %this.addr, align 8
  %stacktop_ = getelementptr inbounds %"class.re2::Regexp::ParseState", ptr %this1, i32 0, i32 3
  %0 = load ptr, ptr %stacktop_, align 8
  store ptr %0, ptr %r1, align 8
  %1 = load ptr, ptr %r1, align 8
  %cmp = icmp eq ptr %1, null
  br i1 %cmp, label %if.then, label %lor.lhs.false

lor.lhs.false:                                    ; preds = %entry
  %2 = load ptr, ptr %r1, align 8
  %call = call noundef i32 @_ZN3re26Regexp2opEv(ptr noundef nonnull align 8 dereferenceable(40) %2)
  %call2 = call noundef zeroext i1 @_ZN3re26Regexp10ParseState8IsMarkerENS_8RegexpOpE(ptr noundef nonnull align 8 dereferenceable(48) %this1, i32 noundef %call)
  br i1 %call2, label %if.then, label %if.end

if.then:                                          ; preds = %lor.lhs.false, %entry
  %call3 = call noalias noundef nonnull ptr @_Znwm(i64 noundef 40) #15
  %flags_ = getelementptr inbounds %"class.re2::Regexp::ParseState", ptr %this1, i32 0, i32 0
  %3 = load i32, ptr %flags_, align 8
  invoke void @_ZN3re26RegexpC1ENS_8RegexpOpENS0_10ParseFlagsE(ptr noundef nonnull align 8 dereferenceable(40) %call3, i32 noundef 2, i32 noundef %3)
          to label %invoke.cont unwind label %lpad

invoke.cont:                                      ; preds = %if.then
  store ptr %call3, ptr %re, align 8
  %4 = load ptr, ptr %re, align 8
  %call4 = call noundef zeroext i1 @_ZN3re26Regexp10ParseState10PushRegexpEPS0_(ptr noundef nonnull align 8 dereferenceable(48) %this1, ptr noundef %4)
  br label %if.end

lpad:                                             ; preds = %if.then
  %5 = landingpad { ptr, i32 }
          cleanup
  %6 = extractvalue { ptr, i32 } %5, 0
  store ptr %6, ptr %exn.slot, align 8
  %7 = extractvalue { ptr, i32 } %5, 1
  store i32 %7, ptr %ehselector.slot, align 4
  call void @_ZdlPv(ptr noundef %call3) #13
  br label %eh.resume

if.end:                                           ; preds = %invoke.cont, %lor.lhs.false
  call void @_ZN3re26Regexp10ParseState10DoCollapseENS_8RegexpOpE(ptr noundef nonnull align 8 dereferenceable(48) %this1, i32 noundef 5)
  ret void

eh.resume:                                        ; preds = %lpad
  %exn = load ptr, ptr %exn.slot, align 8
  %sel = load i32, ptr %ehselector.slot, align 4
  %lpad.val = insertvalue { ptr, i32 } poison, ptr %exn, 0
  %lpad.val5 = insertvalue { ptr, i32 } %lpad.val, i32 %sel, 1
  resume { ptr, i32 } %lpad.val5
}