; Function Attrs: mustprogress uwtable
define void @_ZN3re26Regexp10ParseState15DoConcatenationEv(ptr nocapture noundef nonnull align 8 dereferenceable(48) %this) local_unnamed_addr #8 align 2 personality ptr @__gxx_personality_v0 {
entry:
  %stacktop_ = getelementptr inbounds i8, ptr %this, i64 32
  %0 = load ptr, ptr %stacktop_, align 8
  %cmp = icmp eq ptr %0, null
  br i1 %cmp, label %if.then, label %lor.lhs.false

lor.lhs.false:                                    ; preds = %entry
  %1 = load i8, ptr %0, align 8
  %cmp.i = icmp ugt i8 %1, 21
  br i1 %cmp.i, label %if.then, label %if.end

if.then:                                          ; preds = %lor.lhs.false, %entry
  %call3 = tail call noalias noundef nonnull dereferenceable(40) ptr @_Znwm(i64 noundef 40) #28
  %2 = load i32, ptr %this, align 8
  invoke void @_ZN3re26RegexpC1ENS_8RegexpOpENS0_10ParseFlagsE(ptr noundef nonnull align 8 dereferenceable(40) %call3, i32 noundef 2, i32 noundef %2)
          to label %invoke.cont unwind label %lpad

invoke.cont:                                      ; preds = %if.then
  %call4 = tail call noundef zeroext i1 @_ZN3re26Regexp10ParseState10PushRegexpEPS0_(ptr noundef nonnull align 8 dereferenceable(48) %this, ptr noundef nonnull %call3)
  br label %if.end

lpad:                                             ; preds = %if.then
  %3 = landingpad { ptr, i32 }
          cleanup
  tail call void @_ZdlPv(ptr noundef nonnull %call3) #26
  resume { ptr, i32 } %3

if.end:                                           ; preds = %invoke.cont, %lor.lhs.false
  tail call void @_ZN3re26Regexp10ParseState10DoCollapseENS_8RegexpOpE(ptr noundef nonnull align 8 dereferenceable(48) %this, i32 noundef 5)
  ret void
}